; Function Attrs: mustprogress nounwind uwtable
define noundef nonnull align 8 dereferenceable(409) ptr @_ZN8QuantLib19DigitalCmsSpreadLeg21withPaymentDayCounterERKNS_10DayCounterE(ptr noundef nonnull returned align 8 dereferenceable(409) %this, ptr nocapture noundef nonnull readonly align 8 dereferenceable(16) %dayCounter) local_unnamed_addr #10 align 2 personality ptr @__gxx_personality_v0 {
entry:
  %paymentDayCounter_ = getelementptr inbounds nuw i8, ptr %this, i64 176
  %0 = load ptr, ptr %dayCounter, align 8, !tbaa !73
  %pn3.i.i.i = getelementptr inbounds nuw i8, ptr %dayCounter, i64 8
  %1 = load ptr, ptr %pn3.i.i.i, align 8, !tbaa !48
  %cmp.not.i.i.i.i = icmp eq ptr %1, null
  br i1 %cmp.not.i.i.i.i, label %_ZN5boost10shared_ptrIN8QuantLib10DayCounter4ImplEEC2ERKS4_.exit.i.i, label %if.then.i.i.i.i

if.then.i.i.i.i:                                  ; preds = %entry
  %use_count_.i.i.i.i.i = getelementptr inbounds nuw i8, ptr %1, i64 8
  %2 = atomicrmw add ptr %use_count_.i.i.i.i.i, i32 1 monotonic, align 4
  br label %_ZN5boost10shared_ptrIN8QuantLib10DayCounter4ImplEEC2ERKS4_.exit.i.i

_ZN5boost10shared_ptrIN8QuantLib10DayCounter4ImplEEC2ERKS4_.exit.i.i: ; preds = %if.then.i.i.i.i, %entry
  store ptr %0, ptr %paymentDayCounter_, align 8, !tbaa !3
  %pn3.i2.i.i = getelementptr inbounds nuw i8, ptr %this, i64 184
  %3 = load ptr, ptr %pn3.i2.i.i, align 8, !tbaa !48
  store ptr %1, ptr %pn3.i2.i.i, align 8, !tbaa !48
  %cmp.not.i.i4.i.i = icmp eq ptr %3, null
  br i1 %cmp.not.i.i4.i.i, label %_ZN8QuantLib10DayCounteraSERKS0_.exit, label %if.then.i.i5.i.i

if.then.i.i5.i.i:                                 ; preds = %_ZN5boost10shared_ptrIN8QuantLib10DayCounter4ImplEEC2ERKS4_.exit.i.i
  %use_count_.i.i.i6.i.i = getelementptr inbounds nuw i8, ptr %3, i64 8
  %4 = atomicrmw sub ptr %use_count_.i.i.i6.i.i, i32 1 acq_rel, align 4
  %cmp.i.i.i.i.i = icmp eq i32 %4, 1
  br i1 %cmp.i.i.i.i.i, label %if.then.i.i.i.i.i, label %_ZN8QuantLib10DayCounteraSERKS0_.exit

if.then.i.i.i.i.i:                                ; preds = %if.then.i.i5.i.i
  %vtable.i.i.i.i.i = load ptr, ptr %3, align 8, !tbaa !33
  %vfn.i.i.i.i.i = getelementptr inbounds i8, ptr %vtable.i.i.i.i.i, i64 16
  %5 = load ptr, ptr %vfn.i.i.i.i.i, align 8
  invoke void %5(ptr noundef nonnull align 8 dereferenceable(16) %3)
          to label %.noexc.i.i.i.i unwind label %terminate.lpad.i.i.i.i

.noexc.i.i.i.i:                                   ; preds = %if.then.i.i.i.i.i
  %weak_count_.i.i.i.i.i.i = getelementptr inbounds nuw i8, ptr %3, i64 12
  %6 = atomicrmw sub ptr %weak_count_.i.i.i.i.i.i, i32 1 acq_rel, align 4
  %cmp.i.i.i.i.i.i = icmp eq i32 %6, 1
  br i1 %cmp.i.i.i.i.i.i, label %if.then.i.i.i.i.i.i, label %_ZN8QuantLib10DayCounteraSERKS0_.exit

if.then.i.i.i.i.i.i:                              ; preds = %.noexc.i.i.i.i
  %vtable.i.i.i.i.i.i = load ptr, ptr %3, align 8, !tbaa !33
  %vfn.i.i.i.i.i.i = getelementptr inbounds i8, ptr %vtable.i.i.i.i.i.i, i64 24
  %7 = load ptr, ptr %vfn.i.i.i.i.i.i, align 8
  invoke void %7(ptr noundef nonnull align 8 dereferenceable(16) %3)
          to label %_ZN8QuantLib10DayCounteraSERKS0_.exit unwind label %terminate.lpad.i.i.i.i

terminate.lpad.i.i.i.i:                           ; preds = %if.then.i.i.i.i.i.i, %if.then.i.i.i.i.i
  %8 = landingpad { ptr, i32 }
          catch ptr null
  %9 = extractvalue { ptr, i32 } %8, 0
  tail call void @__clang_call_terminate(ptr %9) #30
  unreachable

_ZN8QuantLib10DayCounteraSERKS0_.exit:            ; preds = %_ZN5boost10shared_ptrIN8QuantLib10DayCounter4ImplEEC2ERKS4_.exit.i.i, %if.then.i.i5.i.i, %.noexc.i.i.i.i, %if.then.i.i.i.i.i.i
  ret ptr %this
}